(ilevelformat
LevelFormat
p1
(dp2
S'buttons'
p3
(lp4
sS'player'
p5
(ilevelformat
Player
p6
(dp7
S'color'
p8
(I0
I0
I255
tp9
sS'rect'
p10
cpygame
__rect_constructor
p11
(I-25
I368
I30
I30
tRp12
sbsS'exit'
p13
(ilevelformat
Exit
p14
(dp15
g8
(I255
I0
I0
tp16
sg10
g11
(I752
I264
I100
I100
tRp17
sbsS'recorders'
p18
(lp19
sS'platforms'
p20
(lp21
(ilevelformat
Platform
p22
(dp23
g8
(I0
I0
I0
tp24
sS'setBy'
p25
NsS'visibleDefault'
p26
I01
sg10
g11
(I562
I356
I413
I87
tRp27
sba(ilevelformat
Platform
p28
(dp29
g8
g24
sg25
Nsg26
I01
sg10
g11
(I-99
I398
I219
I115
tRp30
sba(ilevelformat
Platform
p31
(dp32
g8
g24
sg25
Nsg26
I01
sg10
g11
(I83
I266
I114
I264
tRp33
sba(ilevelformat
Platform
p34
(dp35
g8
g24
sg25
Nsg26
I01
sg10
g11
(I-18
I227
I239
I64
tRp36
sba(ilevelformat
Platform
p37
(dp38
g8
g24
sg25
Nsg26
I01
sg10
g11
(I384
I-38
I41
I493
tRp39
sbasb.