(i__main__
LevelFormat
p1
(dp2
S'buttons'
p3
(lp4
(i__main__
Button
p5
(dp6
S'color'
p7
(I255
I0
I255
tp8
sS'rect'
p9
cpygame
__rect_constructor
p10
(I357
I142
I70
I70
tRp11
sS'sets'
p12
NsbasS'player'
p13
(i__main__
Player
p14
(dp15
g7
(I0
I0
I255
tp16
sg9
g10
(I200
I200
I30
I30
tRp17
sbsS'exit'
p18
(i__main__
Exit
p19
(dp20
g7
(I255
I0
I0
tp21
sg9
g10
(I758
I128
I100
I100
tRp22
sbsS'recorders'
p23
(lp24
sS'platforms'
p25
(lp26
(i__main__
Platform
p27
(dp28
g7
(I0
I0
I0
tp29
sS'setBy'
p30
NsS'visibleDefault'
p31
I01
sg9
g10
(I665
I242
I314
I169
tRp32
sba(i__main__
Platform
p33
(dp34
g7
g29
sg30
Nsg31
I01
sg9
g10
(I128
I281
I260
I48
tRp35
sbasb.