(ilevelformat
LevelFormat
p1
(dp2
S'buttons'
p3
(lp4
(ilevelformat
Button
p5
(dp6
S'color'
p7
(I255
I0
I255
tp8
sS'rect'
p9
cpygame
__rect_constructor
p10
(I847
I312
I70
I70
tRp11
sS'sets'
p12
S'a'
sbasS'player'
p13
(ilevelformat
Player
p14
(dp15
g7
(I0
I0
I255
tp16
sg9
g10
(I222
I315
I30
I30
tRp17
sbsS'exit'
p18
(ilevelformat
Exit
p19
(dp20
g7
(I255
I0
I0
tp21
sg9
g10
(I1298
I37
I100
I100
tRp22
sbsS'recorders'
p23
(lp24
(ilevelformat
Recorder
p25
(dp26
g7
(I255
I255
I0
tp27
sg9
g10
(I299
I281
I100
I100
tRp28
sba(ilevelformat
Recorder
p29
(dp30
g7
g27
sg9
g10
(I451
I282
I100
I100
tRp31
sbasS'platforms'
p32
(lp33
(ilevelformat
Platform
p34
(dp35
g7
(I0
I0
I0
tp36
sS'setBy'
p37
NsS'visibleDefault'
p38
I01
sg9
g10
(I188
I378
I372
I113
tRp39
sba(ilevelformat
Platform
p40
(dp41
g7
g36
sg37
Nsg38
I01
sg9
g10
(I579
I382
I391
I130
tRp42
sba(ilevelformat
Platform
p43
(dp44
g7
g36
sg37
S'a'
sg38
I01
sg9
g10
(I372
I130
I96
I61
tRp45
sba(ilevelformat
Platform
p46
(dp47
g7
g36
sg37
Nsg38
I01
sg9
g10
(I1253
I157
I390
I104
tRp48
sba(ilevelformat
Platform
p49
(dp50
g7
g36
sg37
Nsg38
I01
sg9
g10
(I988
I401
I219
I143
tRp51
sba(ilevelformat
Platform
p52
(dp53
g7
g36
sg37
Nsg38
I01
sg9
g10
(I1020
I284
I378
I114
tRp54
sba(ilevelformat
Platform
p55
(dp56
g7
(I0
I0
I0
tp57
sg37
S'a'
sg38
I01
sg9
g10
(I1272
I33
I162
I110
tRp58
sbasb.