(ilevelformat
LevelFormat
p1
(dp2
S'buttons'
p3
(lp4
(ilevelformat
Button
p5
(dp6
S'color'
p7
(I255
I0
I255
tp8
sS'rect'
p9
cpygame
__rect_constructor
p10
(I172
I162
I70
I70
tRp11
sS'sets'
p12
S'a'
sbasS'player'
p13
(ilevelformat
Player
p14
(dp15
g7
(I0
I0
I255
tp16
sg9
g10
(I9
I138
I30
I30
tRp17
sbsS'exit'
p18
(ilevelformat
Exit
p19
(dp20
g7
(I255
I0
I0
tp21
sg9
g10
(I1082
I-109
I100
I100
tRp22
sbsS'recorders'
p23
(lp24
sS'platforms'
p25
(lp26
(ilevelformat
Platform
p27
(dp28
g7
(I0
I0
I0
tp29
sS'setBy'
p30
NsS'visibleDefault'
p31
I01
sg9
g10
(I-28
I232
I372
I113
tRp32
sba(ilevelformat
Platform
p33
(dp34
g7
g29
sg30
Nsg31
I01
sg9
g10
(I363
I236
I391
I130
tRp35
sba(ilevelformat
Platform
p36
(dp37
g7
g29
sg30
S'a'
sg31
I00
sg9
g10
(I156
I-16
I96
I61
tRp38
sba(ilevelformat
Platform
p39
(dp40
g7
g29
sg30
Nsg31
I01
sg9
g10
(I1037
I11
I390
I104
tRp41
sba(ilevelformat
Platform
p42
(dp43
g7
g29
sg30
Nsg31
I01
sg9
g10
(I772
I255
I219
I143
tRp44
sba(ilevelformat
Platform
p45
(dp46
g7
g29
sg30
Nsg31
I01
sg9
g10
(I804
I138
I378
I114
tRp47
sbasb.