(i__main__
LevelFormat
p1
(dp2
S'buttons'
p3
(lp4
(i__main__
Button
p5
(dp6
S'color'
p7
(I255
I0
I255
tp8
sS'rect'
p9
cpygame
__rect_constructor
p10
(I388
I188
I70
I70
tRp11
sS'sets'
p12
NsbasS'player'
p13
(i__main__
Player
p14
(dp15
g7
(I0
I0
I255
tp16
sg9
g10
(I236
I225
I30
I30
tRp17
sbsS'exit'
p18
(i__main__
Exit
p19
(dp20
g7
(I255
I0
I0
tp21
sg9
g10
(I663
I175
I100
I100
tRp22
sg12
NsbsS'recorders'
p23
(lp24
(i__main__
Recorder
p25
(dp26
g7
(I255
I255
I0
tp27
sg9
g10
(I520
I184
I100
I100
tRp28
sbasS'platforms'
p29
(lp30
(i__main__
Platform
p31
(dp32
g7
(I0
I0
I0
tp33
sS'setBy'
p34
Nsg9
g10
(I-58
I220
I234
I64
tRp35
sba(i__main__
Platform
p36
(dp37
g7
g33
sg34
Nsg9
g10
(I100
I272
I674
I169
tRp38
sba(i__main__
Platform
p39
(dp40
g7
(I0
I0
I0
tp41
sg34
Nsg9
g10
(I259
I55
I189
I101
tRp42
sbasb.