(ilevelformat
LevelFormat
p1
(dp2
S'buttons'
p3
(lp4
(ilevelformat
Button
p5
(dp6
S'color'
p7
(I255
I0
I255
tp8
sS'rect'
p9
cpygame
__rect_constructor
p10
(I413
I225
I70
I70
tRp11
sS'sets'
p12
S'a'
sbasS'player'
p13
(ilevelformat
Player
p14
(dp15
g7
(I0
I0
I255
tp16
sg9
g10
(I61
I213
I30
I30
tRp17
sbsS'exit'
p18
(ilevelformat
Exit
p19
(dp20
g7
(I255
I0
I0
tp21
sg9
g10
(I1236
I71
I100
I100
tRp22
sbsS'recorders'
p23
(lp24
sS'platforms'
p25
(lp26
(ilevelformat
Platform
p27
(dp28
g7
(I0
I0
I0
tp29
sS'setBy'
p30
NsS'visibleDefault'
p31
I01
sg9
g10
(I28
I267
I337
I129
tRp32
sba(ilevelformat
Platform
p33
(dp34
g7
g29
sg30
Nsg31
I01
sg9
g10
(I1070
I171
I293
I97
tRp35
sba(ilevelformat
Platform
p36
(dp37
g7
g29
sg30
Nsg31
I01
sg9
g10
(I826
I267
I537
I114
tRp38
sba(ilevelformat
Platform
p39
(dp40
g7
g29
sg30
Nsg31
I01
sg9
g10
(I904
I223
I180
I44
tRp41
sba(ilevelformat
Platform
p42
(dp43
g7
g29
sg30
Nsg31
I01
sg9
g10
(I532
I287
I380
I123
tRp44
sba(ilevelformat
Platform
p45
(dp46
g7
g29
sg30
S'a'
sg31
I01
sg9
g10
(I318
I295
I233
I157
tRp47
sbasb.