(ilevelformat
LevelFormat
p1
(dp2
S'buttons'
p3
(lp4
(ilevelformat
Button
p5
(dp6
S'color'
p7
(I255
I0
I255
tp8
sS'rect'
p9
cpygame
__rect_constructor
p10
(I1332
I101
I70
I70
tRp11
sS'sets'
p12
S'b'
sba(ilevelformat
Button
p13
(dp14
g7
g8
sg9
g10
(I1566
I-14
I70
I70
tRp15
sg12
S'c'
sba(ilevelformat
Button
p16
(dp17
g7
g8
sg9
g10
(I1814
I-131
I70
I70
tRp18
sg12
S'd'
sba(ilevelformat
Button
p19
(dp20
g7
g8
sg9
g10
(I1120
I274
I70
I70
tRp21
sg12
S'a'
sbasS'player'
p22
(ilevelformat
Player
p23
(dp24
g7
(I0
I0
I255
tp25
sg9
g10
(I185
I273
I30
I30
tRp26
sbsS'exit'
p27
(ilevelformat
Exit
p28
(dp29
g7
(I255
I0
I0
tp30
sg9
g10
(I2390
I-388
I100
I100
tRp31
sbsS'recorders'
p32
(lp33
(ilevelformat
Recorder
p34
(dp35
g7
(I255
I255
I0
tp36
sg9
g10
(I679
I247
I100
I100
tRp37
sba(ilevelformat
Recorder
p38
(dp39
g7
g36
sg9
g10
(I839
I246
I100
I100
tRp40
sba(ilevelformat
Recorder
p41
(dp42
g7
(I255
I255
I0
tp43
sg9
g10
(I518
I245
I100
I100
tRp44
sba(ilevelformat
Recorder
p45
(dp46
g7
g43
sg9
g10
(I370
I242
I100
I100
tRp47
sba(ilevelformat
Recorder
p48
(dp49
g7
(I255
I255
I0
tp50
sg9
g10
(I221
I242
I100
I100
tRp51
sbasS'platforms'
p52
(lp53
(ilevelformat
Platform
p54
(dp55
g7
(I0
I0
I0
tp56
sS'setBy'
p57
NsS'visibleDefault'
p58
I01
sg9
g10
(I2306
I-289
I255
I99
tRp59
sba(ilevelformat
Platform
p60
(dp61
g7
g56
sg57
S'd'
sg58
I00
sg9
g10
(I2034
I-229
I180
I100
tRp62
sba(ilevelformat
Platform
p63
(dp64
g7
g56
sg57
S'c'
sg58
I00
sg9
g10
(I1779
I-61
I143
I120
tRp65
sba(ilevelformat
Platform
p66
(dp67
g7
g56
sg57
S'b'
sg58
I00
sg9
g10
(I1527
I57
I151
I97
tRp68
sba(ilevelformat
Platform
p69
(dp70
g7
g56
sg57
S'a'
sg58
I00
sg9
g10
(I1283
I169
I164
I103
tRp71
sba(ilevelformat
Platform
p72
(dp73
g7
g56
sg57
Nsg58
I01
sg9
g10
(I534
I343
I677
I161
tRp74
sba(ilevelformat
Platform
p75
(dp76
g7
(I0
I0
I0
tp77
sg57
Nsg58
I01
sg9
g10
(I159
I343
I377
I170
tRp78
sbasb.