(ilevelformat
LevelFormat
p1
(dp2
S'buttons'
p3
(lp4
(ilevelformat
Button
p5
(dp6
S'color'
p7
(I255
I0
I255
tp8
sS'rect'
p9
cpygame
__rect_constructor
p10
(I-589
I242
I70
I70
tRp11
sS'sets'
p12
S'a'
sba(ilevelformat
Button
p13
(dp14
g7
g8
sg9
g10
(I-329
I242
I70
I70
tRp15
sg12
S'b'
sba(ilevelformat
Button
p16
(dp17
g7
g8
sg9
g10
(I-80
I242
I70
I70
tRp18
sg12
S'c'
sba(ilevelformat
Button
p19
(dp20
g7
g8
sg9
g10
(I171
I243
I70
I70
tRp21
sg12
S'd'
sbasS'player'
p22
(ilevelformat
Player
p23
(dp24
g7
(I0
I0
I255
tp25
sg9
g10
(I-798
I262
I30
I30
tRp26
sbsS'exit'
p27
(ilevelformat
Exit
p28
(dp29
g7
(I255
I0
I0
tp30
sg9
g10
(I420
I195
I100
I100
tRp31
sbsS'recorders'
p32
(lp33
sS'platforms'
p34
(lp35
(ilevelformat
Platform
p36
(dp37
g7
(I0
I0
I0
tp38
sS'setBy'
p39
NsS'visibleDefault'
p40
I01
sg9
g10
(I-446
I311
I988
I125
tRp41
sba(ilevelformat
Platform
p42
(dp43
g7
g38
sg39
Nsg40
I01
sg9
g10
(I-808
I311
I363
I198
tRp44
sba(ilevelformat
Platform
p45
(dp46
g7
g38
sg39
S'd'
sg40
I01
sg9
g10
(I403
I97
I224
I80
tRp47
sba(ilevelformat
Platform
p48
(dp49
g7
g38
sg39
S'd'
sg40
I01
sg9
g10
(I539
I175
I88
I261
tRp50
sba(ilevelformat
Platform
p51
(dp52
g7
g38
sg39
Nsg40
I01
sg9
g10
(I-576
I116
I34
I71
tRp53
sba(ilevelformat
Platform
p54
(dp55
g7
g38
sg39
Nsg40
I01
sg9
g10
(I-591
I94
I64
I31
tRp56
sba(ilevelformat
Platform
p57
(dp58
g7
g38
sg39
Nsg40
I01
sg9
g10
(I-575
I85
I31
I34
tRp59
sba(ilevelformat
Platform
p60
(dp61
g7
g38
sg39
Nsg40
I01
sg9
g10
(I-603
I100
I88
I33
tRp62
sba(ilevelformat
Platform
p63
(dp64
g7
g38
sg39
S'a'
sg40
I01
sg9
g10
(I-626
I-38
I128
I83
tRp65
sba(ilevelformat
Platform
p66
(dp67
g7
g38
sg39
S'b'
sg40
I00
sg9
g10
(I-112
I-70
I372
I382
tRp68
sba(ilevelformat
Platform
p69
(dp70
g7
g38
sg39
S'c'
sg40
I00
sg9
g10
(I-591
I-64
I369
I376
tRp71
sbasb.