(ilevelformat
LevelFormat
p1
(dp2
S'buttons'
p3
(lp4
sS'player'
p5
(ilevelformat
Player
p6
(dp7
S'color'
p8
(I0
I0
I255
tp9
sS'rect'
p10
cpygame
__rect_constructor
p11
(I-566
I430
I30
I30
tRp12
sbsS'exit'
p13
(ilevelformat
Exit
p14
(dp15
g8
(I255
I0
I0
tp16
sg10
g11
(I448
I175
I100
I100
tRp17
sbsS'recorders'
p18
(lp19
sS'platforms'
p20
(lp21
(ilevelformat
Platform
p22
(dp23
g8
(I0
I0
I0
tp24
sS'setBy'
p25
NsS'visibleDefault'
p26
I01
sg10
g11
(I-590
I464
I431
I140
tRp27
sba(ilevelformat
Platform
p28
(dp29
g8
g24
sg25
Nsg26
I01
sg10
g11
(I-270
I405
I416
I171
tRp30
sba(ilevelformat
Platform
p31
(dp32
g8
g24
sg25
Nsg26
I01
sg10
g11
(I-25
I391
I566
I146
tRp33
sba(ilevelformat
Platform
p34
(dp35
g8
g24
sg25
Nsg26
I01
sg10
g11
(I366
I333
I256
I149
tRp36
sba(ilevelformat
Platform
p37
(dp38
g8
g24
sg25
Nsg26
I01
sg10
g11
(I583
I60
I78
I451
tRp39
sba(ilevelformat
Platform
p40
(dp41
g8
g24
sg25
Nsg26
I01
sg10
g11
(I-736
I121
I155
I485
tRp42
sba(ilevelformat
Platform
p43
(dp44
g8
g24
sg25
Nsg26
I01
sg10
g11
(I-716
I10
I764
I122
tRp45
sba(ilevelformat
Platform
p46
(dp47
g8
g24
sg25
Nsg26
I01
sg10
g11
(I-15
I-56
I680
I122
tRp48
sbasb.