(ilevelformat
LevelFormat
p1
(dp2
S'buttons'
p3
(lp4
(ilevelformat
Button
p5
(dp6
S'color'
p7
(I255
I0
I255
tp8
sS'rect'
p9
cpygame
__rect_constructor
p10
(I936
I522
I70
I70
tRp11
sS'sets'
p12
S'b'
sba(ilevelformat
Button
p13
(dp14
g7
g8
sg9
g10
(I1170
I407
I70
I70
tRp15
sg12
S'c'
sba(ilevelformat
Button
p16
(dp17
g7
g8
sg9
g10
(I1418
I290
I70
I70
tRp18
sg12
S'd'
sba(ilevelformat
Button
p19
(dp20
g7
g8
sg9
g10
(I724
I695
I70
I70
tRp21
sg12
S'a'
sbasS'player'
p22
(ilevelformat
Player
p23
(dp24
g7
(I0
I0
I255
tp25
sg9
g10
(I-211
I694
I30
I30
tRp26
sbsS'exit'
p27
(ilevelformat
Exit
p28
(dp29
g7
(I255
I0
I0
tp30
sg9
g10
(I1994
I33
I100
I100
tRp31
sbsS'recorders'
p32
(lp33
(ilevelformat
Recorder
p34
(dp35
g7
(I255
I255
I0
tp36
sg9
g10
(I283
I668
I100
I100
tRp37
sba(ilevelformat
Recorder
p38
(dp39
g7
g36
sg9
g10
(I443
I667
I100
I100
tRp40
sba(ilevelformat
Recorder
p41
(dp42
g7
(I255
I255
I0
tp43
sg9
g10
(I122
I666
I100
I100
tRp44
sba(ilevelformat
Recorder
p45
(dp46
g7
g43
sg9
g10
(I-26
I663
I100
I100
tRp47
sba(ilevelformat
Recorder
p48
(dp49
g7
(I255
I255
I0
tp50
sg9
g10
(I-175
I663
I100
I100
tRp51
sbasS'platforms'
p52
(lp53
(ilevelformat
Platform
p54
(dp55
g7
(I0
I0
I0
tp56
sS'setBy'
p57
NsS'visibleDefault'
p58
I01
sg9
g10
(I1910
I132
I255
I99
tRp59
sba(ilevelformat
Platform
p60
(dp61
g7
g56
sg57
S'd'
sg58
I00
sg9
g10
(I1638
I192
I180
I100
tRp62
sba(ilevelformat
Platform
p63
(dp64
g7
g56
sg57
S'c'
sg58
I00
sg9
g10
(I1383
I360
I143
I120
tRp65
sba(ilevelformat
Platform
p66
(dp67
g7
g56
sg57
S'b'
sg58
I00
sg9
g10
(I1131
I478
I151
I97
tRp68
sba(ilevelformat
Platform
p69
(dp70
g7
g56
sg57
S'a'
sg58
I00
sg9
g10
(I887
I590
I164
I103
tRp71
sba(ilevelformat
Platform
p72
(dp73
g7
g56
sg57
Nsg58
I01
sg9
g10
(I138
I764
I677
I161
tRp74
sba(ilevelformat
Platform
p75
(dp76
g7
(I0
I0
I0
tp77
sg57
Nsg58
I01
sg9
g10
(I-237
I764
I377
I170
tRp78
sbasb.