(ilevelformat
LevelFormat
p1
(dp2
S'buttons'
p3
(lp4
(ilevelformat
Button
p5
(dp6
S'color'
p7
(I255
I0
I255
tp8
sS'rect'
p9
cpygame
__rect_constructor
p10
(I542
I139
I70
I70
tRp11
sS'sets'
p12
S'd'
sba(ilevelformat
Button
p13
(dp14
g7
g8
sg9
g10
(I-87
I569
I70
I70
tRp15
sg12
S'a'
sba(ilevelformat
Button
p16
(dp17
g7
g8
sg9
g10
(I457
I571
I70
I70
tRp18
sg12
S'b'
sba(ilevelformat
Button
p19
(dp20
g7
(I255
I0
I255
tp21
sg9
g10
(I929
I372
I70
I70
tRp22
sg12
S'c'
sbasS'player'
p23
(ilevelformat
Player
p24
(dp25
g7
(I0
I0
I255
tp26
sg9
g10
(I-568
I523
I30
I30
tRp27
sbsS'exit'
p28
(ilevelformat
Exit
p29
(dp30
g7
(I255
I0
I0
tp31
sg9
g10
(I918
I521
I100
I100
tRp32
sbsS'recorders'
p33
(lp34
(ilevelformat
Recorder
p35
(dp36
g7
(I255
I255
I0
tp37
sg9
g10
(I-458
I541
I100
I100
tRp38
sba(ilevelformat
Recorder
p39
(dp40
g7
g37
sg9
g10
(I-269
I538
I100
I100
tRp41
sbasS'platforms'
p42
(lp43
(ilevelformat
Platform
p44
(dp45
g7
(I0
I0
I0
tp46
sS'setBy'
p47
S'c'
sS'visibleDefault'
p48
I01
sg9
g10
(I422
I54
I54
I183
tRp49
sba(ilevelformat
Platform
p50
(dp51
g7
g46
sg47
S'c'
sg48
I01
sg9
g10
(I422
I25
I301
I35
tRp52
sba(ilevelformat
Platform
p53
(dp54
g7
g46
sg47
S'c'
sg48
I01
sg9
g10
(I673
I59
I50
I172
tRp55
sba(ilevelformat
Platform
p56
(dp57
g7
g46
sg47
Nsg48
I01
sg9
g10
(I422
I209
I301
I58
tRp58
sba(ilevelformat
Platform
p59
(dp60
g7
g46
sg47
Nsg48
I01
sg9
g10
(I51
I640
I992
I157
tRp61
sba(ilevelformat
Platform
p62
(dp63
g7
g46
sg47
Nsg48
I01
sg9
g10
(I824
I475
I78
I166
tRp64
sba(ilevelformat
Platform
p65
(dp66
g7
g46
sg47
S'd'
sg48
I01
sg9
g10
(I824
I442
I219
I53
tRp67
sba(ilevelformat
Platform
p68
(dp69
g7
g46
sg47
Nsg48
I01
sg9
g10
(I1034
I442
I36
I353
tRp70
sba(ilevelformat
Platform
p71
(dp72
g7
g46
sg47
S'a'
sg48
I01
sg9
g10
(I13
I357
I110
I283
tRp73
sba(ilevelformat
Platform
p74
(dp75
g7
g46
sg47
Nsg48
I01
sg9
g10
(I-354
I639
I409
I173
tRp76
sba(ilevelformat
Platform
p77
(dp78
g7
g46
sg47
Nsg48
I01
sg9
g10
(I-714
I639
I389
I172
tRp79
sba(ilevelformat
Platform
p80
(dp81
g7
g46
sg47
Nsg48
I01
sg9
g10
(I-714
I349
I79
I318
tRp82
sba(ilevelformat
Platform
p83
(dp84
g7
g46
sg47
S'b'
sg48
I01
sg9
g10
(I-714
I304
I837
I55
tRp85
sba(ilevelformat
Platform
p86
(dp87
g7
g46
sg47
S'b'
sg48
I00
sg9
g10
(I-223
I419
I201
I44
tRp88
sba(ilevelformat
Platform
p89
(dp90
g7
g46
sg47
S'b'
sg48
I00
sg9
g10
(I-476
I476
I152
I39
tRp91
sba(ilevelformat
Platform
p92
(dp93
g7
(I0
I0
I0
tp94
sg47
Nsg48
I01
sg9
g10
(I350
I424
I93
I217
tRp95
sba(ilevelformat
Platform
p96
(dp97
g7
g94
sg47
Nsg48
I01
sg9
g10
(I238
I513
I116
I129
tRp98
sba(ilevelformat
Platform
p99
(dp100
g7
g94
sg47
S'c'
sg48
I00
sg9
g10
(I111
I130
I238
I96
tRp101
sba(ilevelformat
Platform
p102
(dp103
g7
g94
sg47
Nsg48
I01
sg9
g10
(I702
I548
I130
I95
tRp104
sbasb.