(ilevelformat
LevelFormat
p1
(dp2
S'buttons'
p3
(lp4
(ilevelformat
Button
p5
(dp6
S'color'
p7
(I255
I0
I255
tp8
sS'rect'
p9
cpygame
__rect_constructor
p10
(I-201
I359
I70
I70
tRp11
sS'sets'
p12
S'a'
sbasS'player'
p13
(ilevelformat
Player
p14
(dp15
g7
(I0
I0
I255
tp16
sg9
g10
(I-589
I413
I30
I30
tRp17
sbsS'exit'
p18
(ilevelformat
Exit
p19
(dp20
g7
(I255
I0
I0
tp21
sg9
g10
(I404
I185
I100
I100
tRp22
sbsS'recorders'
p23
(lp24
(ilevelformat
Recorder
p25
(dp26
g7
(I255
I255
I0
tp27
sg9
g10
(I-492
I188
I100
I100
tRp28
sba(ilevelformat
Recorder
p29
(dp30
g7
g27
sg9
g10
(I-491
I374
I100
I100
tRp31
sbasS'platforms'
p32
(lp33
(ilevelformat
Platform
p34
(dp35
g7
(I0
I0
I0
tp36
sS'setBy'
p37
NsS'visibleDefault'
p38
I01
sg9
g10
(I-629
I472
I431
I140
tRp39
sba(ilevelformat
Platform
p40
(dp41
g7
g36
sg37
Nsg38
I01
sg9
g10
(I-309
I428
I416
I171
tRp42
sba(ilevelformat
Platform
p43
(dp44
g7
g36
sg37
Nsg38
I01
sg9
g10
(I-64
I399
I566
I146
tRp45
sba(ilevelformat
Platform
p46
(dp47
g7
g36
sg37
Nsg38
I01
sg9
g10
(I327
I341
I256
I149
tRp48
sba(ilevelformat
Platform
p49
(dp50
g7
g36
sg37
Nsg38
I01
sg9
g10
(I544
I68
I78
I451
tRp51
sba(ilevelformat
Platform
p52
(dp53
g7
g36
sg37
Nsg38
I01
sg9
g10
(I-775
I129
I155
I485
tRp54
sba(ilevelformat
Platform
p55
(dp56
g7
g36
sg37
Nsg38
I01
sg9
g10
(I-755
I18
I764
I122
tRp57
sba(ilevelformat
Platform
p58
(dp59
g7
g36
sg37
Nsg38
I01
sg9
g10
(I-54
I-48
I680
I122
tRp60
sba(ilevelformat
Platform
p61
(dp62
g7
(I0
I0
I0
tp63
sg37
Nsg38
I01
sg9
g10
(I-215
I-96
I88
I31
tRp64
sba(ilevelformat
Platform
p65
(dp66
g7
g63
sg37
S'a'
sg38
I01
sg9
g10
(I-64
I140
I102
I260
tRp67
sba(ilevelformat
Platform
p68
(dp69
g7
g63
sg37
Nsg38
I01
sg9
g10
(I-515
I288
I151
I40
tRp70
sbasb.