(ilevelformat
LevelFormat
p1
(dp2
S'buttons'
p3
(lp4
(ilevelformat
Button
p5
(dp6
S'color'
p7
(I255
I0
I255
tp8
sS'rect'
p9
cpygame
__rect_constructor
p10
(I311
I937
I70
I70
tRp11
sS'sets'
p12
S'a'
sba(ilevelformat
Button
p13
(dp14
g7
g8
sg9
g10
(I618
I938
I70
I70
tRp15
sg12
S'b'
sbasS'player'
p16
(ilevelformat
Player
p17
(dp18
g7
(I0
I0
I255
tp19
sg9
g10
(I477
I918
I30
I30
tRp20
sbsS'exit'
p21
(ilevelformat
Exit
p22
(dp23
g7
(I255
I0
I0
tp24
sg9
g10
(I447
I199
I100
I100
tRp25
sbsS'recorders'
p26
(lp27
(ilevelformat
Recorder
p28
(dp29
g7
(I255
I255
I0
tp30
sg9
g10
(I132
I907
I100
I100
tRp31
sba(ilevelformat
Recorder
p32
(dp33
g7
g30
sg9
g10
(I775
I907
I100
I100
tRp34
sbasS'platforms'
p35
(lp36
(ilevelformat
Platform
p37
(dp38
g7
(I0
I0
I0
tp39
sS'setBy'
p40
NsS'visibleDefault'
p41
I01
sg9
g10
(I19
I1007
I994
I141
tRp42
sba(ilevelformat
Platform
p43
(dp44
g7
g39
sg40
S'a'
sg41
I00
sg9
g10
(I616
I489
I231
I381
tRp45
sba(ilevelformat
Platform
p46
(dp47
g7
g39
sg40
S'a'
sg41
I00
sg9
g10
(I616
I278
I230
I212
tRp48
sba(ilevelformat
Platform
p49
(dp50
g7
g39
sg40
S'b'
sg41
I00
sg9
g10
(I173
I274
I206
I492
tRp51
sba(ilevelformat
Platform
p52
(dp53
g7
g39
sg40
S'b'
sg41
I00
sg9
g10
(I171
I742
I208
I127
tRp54
sba(ilevelformat
Platform
p55
(dp56
g7
g39
sg40
Nsg41
I01
sg9
g10
(I344
I1141
I297
I150
tRp57
sbasb.