(ilevelformat
LevelFormat
p1
(dp2
S'buttons'
p3
(lp4
sS'player'
p5
(ilevelformat
Player
p6
(dp7
S'color'
p8
(I0
I0
I255
tp9
sS'rect'
p10
cpygame
__rect_constructor
p11
(I-278
I303
I30
I30
tRp12
sbsS'exit'
p13
(ilevelformat
Exit
p14
(dp15
g8
(I255
I0
I0
tp16
sg10
g11
(I419
I233
I100
I100
tRp17
sbsS'recorders'
p18
(lp19
sS'platforms'
p20
(lp21
(ilevelformat
Platform
p22
(dp23
g8
(I0
I0
I0
tp24
sS'setBy'
p25
NsS'visibleDefault'
p26
I01
sg10
g11
(I-310
I332
I848
I183
tRp27
sbasb.