(i__main__
LevelFormat
p1
(dp2
S'buttons'
p3
(lp4
sS'player'
p5
(i__main__
Player
p6
(dp7
S'color'
p8
(I0
I0
I255
tp9
sS'rect'
p10
cpygame
__rect_constructor
p11
(I212
I180
I30
I30
tRp12
sbsS'exit'
p13
(i__main__
Exit
p14
(dp15
g8
(I255
I0
I0
tp16
sg10
g11
(I967
I131
I100
I100
tRp17
sbsS'recorders'
p18
(lp19
sS'platforms'
p20
(lp21
(i__main__
Platform
p22
(dp23
g8
(I0
I0
I0
tp24
sS'setBy'
p25
NsS'visibleDefault'
p26
I01
sg10
g11
(I133
I209
I183
I39
tRp27
sba(i__main__
Platform
p28
(dp29
g8
g24
sg25
Nsg26
I01
sg10
g11
(I382
I234
I312
I125
tRp30
sba(i__main__
Platform
p31
(dp32
g8
g24
sg25
Nsg26
I01
sg10
g11
(I805
I244
I132
I63
tRp33
sba(i__main__
Platform
p34
(dp35
g8
g24
sg25
Nsg26
I01
sg10
g11
(I680
I220
I153
I83
tRp36
sba(i__main__
Platform
p37
(dp38
g8
g24
sg25
Nsg26
I01
sg10
g11
(I908
I241
I228
I171
tRp39
sbasb.